; Function Attrs: mustprogress nofree norecurse nosync nounwind willreturn memory(read, inaccessiblemem: none) uwtable
define dso_local zeroext i1 @fed_mgr_job_is_self_owned(ptr noundef readonly captures(none) %0) local_unnamed_addr #9 {
  %2 = load ptr, ptr @fed_mgr_cluster_rec, align 8
  %.not = icmp eq ptr %2, null
  br i1 %.not, label %11, label %3

3:                                                ; preds = %1
  %4 = getelementptr inbounds nuw i8, ptr %0, i64 280
  %5 = load ptr, ptr %4, align 8
  %.not5 = icmp eq ptr %5, null
  br i1 %.not5, label %11, label %6

6:                                                ; preds = %3
  %7 = load i32, ptr %5, align 8
  %8 = getelementptr inbounds nuw i8, ptr %2, i64 192
  %9 = load i32, ptr %8, align 8
  %10 = icmp eq i32 %7, %9
  br label %11

11:                                               ; preds = %6, %1, %3
  %.0 = phi i1 [ true, %3 ], [ true, %1 ], [ %10, %6 ]
  ret i1 %.0
}